target datalayout = "e-m:e-p270:32:32-p271:32:32-p272:64:64-i64:64-i128:128-f80:128-n8:16:32:64-S128"
target triple = "x86_64-pc-linux-gnu"

%"class.cv::Mat" = type { i32, i32, i32, i32, ptr, ptr, ptr, ptr, ptr, ptr, %"struct.cv::MatSize", %"struct.cv::MatStep" }
%"struct.cv::MatSize" = type { ptr }
%"struct.cv::MatStep" = type { ptr, [2 x i64] }

; Function Attrs: inlinehint mustprogress nounwind uwtable
define linkonce_odr hidden noundef ptr @_ZN2cv3Mat3ptrIhEEPT_ii(ptr noundef nonnull align 8 dereferenceable(96) %0, i32 noundef %1, i32 noundef %2) #14 comdat align 2 {
  %4 = alloca ptr, align 8
  %5 = alloca i32, align 4
  %6 = alloca i32, align 4
  store ptr %0, ptr %4, align 8, !tbaa !159
  store i32 %1, ptr %5, align 4, !tbaa !48
  store i32 %2, ptr %6, align 4, !tbaa !48
  %7 = load ptr, ptr %4, align 8
  %8 = getelementptr inbounds nuw %"class.cv::Mat", ptr %7, i32 0, i32 4
  %9 = load ptr, ptr %8, align 8, !tbaa !161
  %10 = load i32, ptr %5, align 4, !tbaa !48
  %11 = sext i32 %10 to i64
  %12 = getelementptr inbounds nuw %"class.cv::Mat", ptr %7, i32 0, i32 11
  %13 = getelementptr inbounds nuw %"struct.cv::MatStep", ptr %12, i32 0, i32 0
  %14 = load ptr, ptr %13, align 8, !tbaa !162
  %15 = getelementptr inbounds i64, ptr %14, i64 0
  %16 = load i64, ptr %15, align 8, !tbaa !54
  %17 = mul i64 %11, %16
  %18 = getelementptr inbounds nuw i8, ptr %9, i64 %17
  %19 = load i32, ptr %6, align 4, !tbaa !48
  %20 = sext i32 %19 to i64
  %21 = getelementptr inbounds nuw %"class.cv::Mat", ptr %7, i32 0, i32 11
  %22 = getelementptr inbounds nuw %"struct.cv::MatStep", ptr %21, i32 0, i32 0
  %23 = load ptr, ptr %22, align 8, !tbaa !162
  %24 = getelementptr inbounds i64, ptr %23, i64 1
  %25 = load i64, ptr %24, align 8, !tbaa !54
  %26 = mul i64 %20, %25
  %27 = getelementptr inbounds nuw i8, ptr %18, i64 %26
  ret ptr %27
}

; Function Attrs: mustprogress uwtable
define void @_ZN2cv8freetype13FreeType2Impl19putPixel_8UC1_blendERNS_3MatEiiPKhh(ptr noundef nonnull align 8 dereferenceable(88) %0, ptr noundef nonnull align 8 dereferenceable(96) %1, i32 noundef %2, i32 noundef %3, ptr noundef %4, i8 noundef zeroext %5) #4 align 2 {
  %7 = alloca ptr, align 8
  %8 = alloca ptr, align 8
  %9 = alloca i32, align 4
  %10 = alloca i32, align 4
  %11 = alloca ptr, align 8
  %12 = alloca i8, align 1
  %13 = alloca i32, align 4
  %14 = alloca i32, align 4
  %15 = alloca ptr, align 8
  %16 = alloca i32, align 4
  store ptr %0, ptr %7, align 8, !tbaa !3
  store ptr %1, ptr %8, align 8, !tbaa !159
  store i32 %2, ptr %9, align 4, !tbaa !48
  store i32 %3, ptr %10, align 4, !tbaa !48
  store ptr %4, ptr %11, align 8, !tbaa !72
  store i8 %5, ptr %12, align 1, !tbaa !101
  call void @llvm.lifetime.start.p0(i64 4, ptr %13) #3
  %17 = load i8, ptr %12, align 1, !tbaa !101
  %18 = zext i8 %17 to i32
  store i32 %18, ptr %13, align 4, !tbaa !48
  call void @llvm.lifetime.start.p0(i64 4, ptr %14) #3
  %19 = load ptr, ptr %11, align 8, !tbaa !72
  %20 = getelementptr inbounds i8, ptr %19, i64 0
  %21 = load i8, ptr %20, align 1, !tbaa !101
  %22 = zext i8 %21 to i32
  store i32 %22, ptr %14, align 4, !tbaa !48
  call void @llvm.lifetime.start.p0(i64 8, ptr %15) #3
  %23 = load ptr, ptr %8, align 8, !tbaa !159
  %24 = load i32, ptr %9, align 4, !tbaa !48
  %25 = load i32, ptr %10, align 4, !tbaa !48
  %26 = call noundef ptr @_ZN2cv3Mat3ptrIhEEPT_ii(ptr noundef nonnull align 8 dereferenceable(96) %23, i32 noundef %24, i32 noundef %25)
  store ptr %26, ptr %15, align 8, !tbaa !72
  call void @llvm.lifetime.start.p0(i64 4, ptr %16) #3
  %27 = load ptr, ptr %15, align 8, !tbaa !72
  %28 = getelementptr inbounds i8, ptr %27, i64 0
  %29 = load i8, ptr %28, align 1, !tbaa !101
  %30 = zext i8 %29 to i32
  store i32 %30, ptr %16, align 4, !tbaa !48
  %31 = load i32, ptr %14, align 4, !tbaa !48
  %32 = load i32, ptr %16, align 4, !tbaa !48
  %33 = sub nsw i32 %31, %32
  %34 = load i32, ptr %13, align 4, !tbaa !48
  %35 = mul nsw i32 %33, %34
  %36 = add nsw i32 %35, 127
  %37 = ashr i32 %36, 8
  %38 = load i32, ptr %16, align 4, !tbaa !48
  %39 = add nsw i32 %38, %37
  store i32 %39, ptr %16, align 4, !tbaa !48
  %40 = load i32, ptr %14, align 4, !tbaa !48
  %41 = load i32, ptr %16, align 4, !tbaa !48
  %42 = sub nsw i32 %40, %41
  %43 = load i32, ptr %13, align 4, !tbaa !48
  %44 = mul nsw i32 %42, %43
  %45 = add nsw i32 %44, 127
  %46 = ashr i32 %45, 8
  %47 = load i32, ptr %16, align 4, !tbaa !48
  %48 = add nsw i32 %47, %46
  store i32 %48, ptr %16, align 4, !tbaa !48
  %49 = load i32, ptr %16, align 4, !tbaa !48
  %50 = trunc i32 %49 to i8
  %51 = load ptr, ptr %15, align 8, !tbaa !72
  %52 = getelementptr inbounds i8, ptr %51, i64 0
  store i8 %50, ptr %52, align 1, !tbaa !101
  call void @llvm.lifetime.end.p0(i64 4, ptr %16) #3
  call void @llvm.lifetime.end.p0(i64 8, ptr %15) #3
  call void @llvm.lifetime.end.p0(i64 4, ptr %14) #3
  call void @llvm.lifetime.end.p0(i64 4, ptr %13) #3
  ret void
}