; Function Attrs: mustprogress nofree norecurse nosync nounwind willreturn memory(readwrite, inaccessiblemem: none) uwtable
define void @_ZN2cv8freetype13FreeType2Impl19putPixel_8UC1_blendERNS_3MatEiiPKhh(ptr nonnull readnone align 8 captures(none) %0, ptr noundef nonnull readonly align 8 captures(none) dereferenceable(96) %1, i32 noundef %2, i32 noundef %3, ptr noundef readonly captures(none) %4, i8 noundef zeroext %5) #13 align 2 {
  %7 = zext i8 %5 to i32
  %8 = load i8, ptr %4, align 1, !tbaa !107
  %9 = zext i8 %8 to i32
  %10 = getelementptr inbounds nuw i8, ptr %1, i64 16
  %11 = load ptr, ptr %10, align 8, !tbaa !168
  %12 = sext i32 %2 to i64
  %13 = getelementptr inbounds nuw i8, ptr %1, i64 72
  %14 = load ptr, ptr %13, align 8, !tbaa !169
  %15 = load i64, ptr %14, align 8, !tbaa !62
  %16 = mul i64 %15, %12
  %17 = getelementptr inbounds nuw i8, ptr %11, i64 %16
  %18 = sext i32 %3 to i64
  %19 = getelementptr inbounds nuw i8, ptr %14, i64 8
  %20 = load i64, ptr %19, align 8, !tbaa !62
  %21 = mul i64 %20, %18
  %22 = getelementptr inbounds nuw i8, ptr %17, i64 %21
  %23 = load i8, ptr %22, align 1, !tbaa !107
  %24 = zext i8 %23 to i32
  %25 = sub nsw i32 %9, %24
  %26 = mul nsw i32 %25, %7
  %27 = add nsw i32 %26, 127
  %28 = ashr i32 %27, 8
  %29 = add nsw i32 %28, %24
  %30 = sub nsw i32 %9, %29
  %31 = mul nsw i32 %30, %7
  %32 = add nsw i32 %31, 127
  %33 = lshr i32 %32, 8
  %34 = add nsw i32 %33, %29
  %35 = trunc i32 %34 to i8
  store i8 %35, ptr %22, align 1, !tbaa !107
  ret void
}